target datalayout = "e-m:e-p270:32:32-p271:32:32-p272:64:64-i64:64-i128:128-f80:128-n8:16:32:64-S128"
target triple = "x86_64-pc-linux-gnu"

%"class.pbrt::Vector2" = type { %"class.pbrt::Tuple2" }
%"class.pbrt::Tuple2" = type { float, float }
%"class.pstd::pmr::polymorphic_allocator" = type { ptr }
%"class.pbrt::FilterSampler" = type { %"class.pbrt::Bounds2", %"class.pbrt::Array2D", %"class.pbrt::PiecewiseConstant2D" }
%"class.pbrt::Bounds2" = type { %"class.pbrt::Point2", %"class.pbrt::Point2" }
%"class.pbrt::Point2" = type { %"class.pbrt::Tuple2.2" }
%"class.pbrt::Tuple2.2" = type { float, float }
%"class.pbrt::Array2D" = type { %"class.pbrt::Bounds2.3", %"class.pstd::pmr::polymorphic_allocator", ptr }
%"class.pbrt::Bounds2.3" = type { %"class.pbrt::Point2.4", %"class.pbrt::Point2.4" }
%"class.pbrt::Point2.4" = type { %"class.pbrt::Tuple2.5" }
%"class.pbrt::Tuple2.5" = type { i32, i32 }
%"class.pbrt::PiecewiseConstant2D" = type { %"class.pbrt::Bounds2", %"class.pstd::vector", %"class.pbrt::PiecewiseConstant1D" }
%"class.pstd::vector" = type { %"class.pstd::pmr::polymorphic_allocator.6", ptr, i64, i64 }
%"class.pstd::pmr::polymorphic_allocator.6" = type { ptr }
%"class.pbrt::PiecewiseConstant1D" = type <{ %"class.pstd::vector.7", %"class.pstd::vector.7", float, float, float, [4 x i8] }>
%"class.pstd::vector.7" = type { %"class.pstd::pmr::polymorphic_allocator.8", ptr, i64, i64 }
%"class.pstd::pmr::polymorphic_allocator.8" = type { ptr }
%"class.pbrt::RNG" = type { i64, i64 }
%"class.pbrt::LanczosSincFilter" = type { %"class.pbrt::Vector2", float, %"class.pbrt::FilterSampler" }

@_ZN4pbrtL15OneMinusEpsilonE = internal constant float 0x3FEFFFFFE0000000, align 4

; Function Attrs: inlinehint mustprogress nounwind uwtable
define linkonce_odr dso_local noundef float @_ZSt3sinf(float noundef %0) #7 comdat {
  %2 = alloca float, align 4
  store float %0, ptr %2, align 4, !tbaa !9
  %3 = load float, ptr %2, align 4, !tbaa !9
  %4 = call float @sinf(float noundef %3) #18, !tbaa !47
  ret float %4
}

; Function Attrs: inlinehint mustprogress uwtable
define linkonce_odr dso_local noundef float @_ZN4pbrt9SinXOverXEf(float noundef %0) #4 comdat {
  %2 = alloca float, align 4
  %3 = alloca float, align 4
  store float %0, ptr %3, align 4, !tbaa !9
  %4 = load float, ptr %3, align 4, !tbaa !9
  %5 = load float, ptr %3, align 4, !tbaa !9
  %6 = fmul float %4, %5
  %7 = fsub float 1.000000e+00, %6
  %8 = fcmp oeq float %7, 1.000000e+00
  br i1 %8, label %9, label %10

9:                                                ; preds = %1
  store float 1.000000e+00, ptr %2, align 4
  br label %15

10:                                               ; preds = %1
  %11 = load float, ptr %3, align 4, !tbaa !9
  %12 = call noundef float @_ZSt3sinf(float noundef %11)
  %13 = load float, ptr %3, align 4, !tbaa !9
  %14 = fdiv float %12, %13
  store float %14, ptr %2, align 4
  br label %15

15:                                               ; preds = %10, %9
  %16 = load float, ptr %2, align 4
  ret float %16
}

; Function Attrs: inlinehint mustprogress uwtable
define linkonce_odr dso_local noundef float @_ZN4pbrt4SincEf(float noundef %0) #4 comdat {
  %2 = alloca float, align 4
  store float %0, ptr %2, align 4, !tbaa !9
  %3 = load float, ptr %2, align 4, !tbaa !9
  %4 = fmul float 0x400921FB60000000, %3
  %5 = call noundef float @_ZN4pbrt9SinXOverXEf(float noundef %4)
  ret float %5
}

; Function Attrs: inlinehint mustprogress nounwind uwtable
define linkonce_odr dso_local noundef float @_ZSt3absf(float noundef %0) #7 comdat {
  %2 = alloca float, align 4
  store float %0, ptr %2, align 4, !tbaa !9
  %3 = load float, ptr %2, align 4, !tbaa !9
  %4 = call float @llvm.fabs.f32(float %3)
  ret float %4
}

; Function Attrs: inlinehint mustprogress uwtable
define linkonce_odr dso_local noundef float @_ZN4pbrt12WindowedSincEfff(float noundef %0, float noundef %1, float noundef %2) #4 comdat {
  %4 = alloca float, align 4
  %5 = alloca float, align 4
  %6 = alloca float, align 4
  %7 = alloca float, align 4
  store float %0, ptr %5, align 4, !tbaa !9
  store float %1, ptr %6, align 4, !tbaa !9
  store float %2, ptr %7, align 4, !tbaa !9
  %8 = load float, ptr %5, align 4, !tbaa !9
  %9 = call noundef float @_ZSt3absf(float noundef %8)
  %10 = load float, ptr %6, align 4, !tbaa !9
  %11 = fcmp ogt float %9, %10
  br i1 %11, label %12, label %13

12:                                               ; preds = %3
  store float 0.000000e+00, ptr %4, align 4
  br label %21

13:                                               ; preds = %3
  %14 = load float, ptr %5, align 4, !tbaa !9
  %15 = call noundef float @_ZN4pbrt4SincEf(float noundef %14)
  %16 = load float, ptr %5, align 4, !tbaa !9
  %17 = load float, ptr %7, align 4, !tbaa !9
  %18 = fdiv float %16, %17
  %19 = call noundef float @_ZN4pbrt4SincEf(float noundef %18)
  %20 = fmul float %15, %19
  store float %20, ptr %4, align 4
  br label %21

21:                                               ; preds = %13, %12
  %22 = load float, ptr %4, align 4
  ret float %22
}

; Function Attrs: mustprogress nounwind uwtable
define linkonce_odr dso_local void @_ZN4pbrt6Tuple2INS_6Point2EfEC2Eff(ptr noundef nonnull align 4 dereferenceable(8) %0, float noundef %1, float noundef %2) unnamed_addr #3 comdat align 2 {
  %4 = alloca ptr, align 8
  %5 = alloca float, align 4
  %6 = alloca float, align 4
  store ptr %0, ptr %4, align 8, !tbaa !116
  store float %1, ptr %5, align 4, !tbaa !9
  store float %2, ptr %6, align 4, !tbaa !9
  %7 = load ptr, ptr %4, align 8
  %8 = getelementptr inbounds nuw %"class.pbrt::Tuple2.2", ptr %7, i32 0, i32 0
  %9 = load float, ptr %5, align 4, !tbaa !9
  store float %9, ptr %8, align 4, !tbaa !52
  %10 = getelementptr inbounds nuw %"class.pbrt::Tuple2.2", ptr %7, i32 0, i32 1
  %11 = load float, ptr %6, align 4, !tbaa !9
  store float %11, ptr %10, align 4, !tbaa !54
  br label %12

12:                                               ; preds = %3
  br label %13

13:                                               ; preds = %12
  ret void
}

; Function Attrs: inlinehint mustprogress nounwind uwtable
define linkonce_odr dso_local noundef nonnull align 4 dereferenceable(4) ptr @_ZSt3minIfERKT_S2_S2_(ptr noundef nonnull align 4 dereferenceable(4) %0, ptr noundef nonnull align 4 dereferenceable(4) %1) #7 comdat {
  %3 = alloca ptr, align 8
  %4 = alloca ptr, align 8
  %5 = alloca ptr, align 8
  store ptr %0, ptr %4, align 8, !tbaa !39
  store ptr %1, ptr %5, align 8, !tbaa !39
  %6 = load ptr, ptr %5, align 8, !tbaa !39
  %7 = load float, ptr %6, align 4, !tbaa !9
  %8 = load ptr, ptr %4, align 8, !tbaa !39
  %9 = load float, ptr %8, align 4, !tbaa !9
  %10 = fcmp olt float %7, %9
  br i1 %10, label %11, label %13

11:                                               ; preds = %2
  %12 = load ptr, ptr %5, align 8, !tbaa !39
  store ptr %12, ptr %3, align 8
  br label %15

13:                                               ; preds = %2
  %14 = load ptr, ptr %4, align 8, !tbaa !39
  store ptr %14, ptr %3, align 8
  br label %15

15:                                               ; preds = %13, %11
  %16 = load ptr, ptr %3, align 8
  ret ptr %16
}

; Function Attrs: inlinehint mustprogress nounwind uwtable
define linkonce_odr dso_local noundef i32 @_ZN4pbrt3RNG7UniformIjEET_v(ptr noundef nonnull align 8 dereferenceable(16) %0) #7 comdat align 2 {
  %2 = alloca ptr, align 8
  %3 = alloca i64, align 8
  %4 = alloca i32, align 4
  %5 = alloca i32, align 4
  store ptr %0, ptr %2, align 8, !tbaa !58
  %6 = load ptr, ptr %2, align 8
  call void @llvm.lifetime.start.p0(i64 8, ptr %3) #18
  %7 = getelementptr inbounds nuw %"class.pbrt::RNG", ptr %6, i32 0, i32 0
  %8 = load i64, ptr %7, align 8, !tbaa !60
  store i64 %8, ptr %3, align 8, !tbaa !105
  %9 = load i64, ptr %3, align 8, !tbaa !105
  %10 = mul i64 %9, 6364136223846793005
  %11 = getelementptr inbounds nuw %"class.pbrt::RNG", ptr %6, i32 0, i32 1
  %12 = load i64, ptr %11, align 8, !tbaa !62
  %13 = add i64 %10, %12
  %14 = getelementptr inbounds nuw %"class.pbrt::RNG", ptr %6, i32 0, i32 0
  store i64 %13, ptr %14, align 8, !tbaa !60
  call void @llvm.lifetime.start.p0(i64 4, ptr %4) #18
  %15 = load i64, ptr %3, align 8, !tbaa !105
  %16 = lshr i64 %15, 18
  %17 = load i64, ptr %3, align 8, !tbaa !105
  %18 = xor i64 %16, %17
  %19 = lshr i64 %18, 27
  %20 = trunc i64 %19 to i32
  store i32 %20, ptr %4, align 4, !tbaa !47
  call void @llvm.lifetime.start.p0(i64 4, ptr %5) #18
  %21 = load i64, ptr %3, align 8, !tbaa !105
  %22 = lshr i64 %21, 59
  %23 = trunc i64 %22 to i32
  store i32 %23, ptr %5, align 4, !tbaa !47
  %24 = load i32, ptr %4, align 4, !tbaa !47
  %25 = load i32, ptr %5, align 4, !tbaa !47
  %26 = lshr i32 %24, %25
  %27 = load i32, ptr %4, align 4, !tbaa !47
  %28 = load i32, ptr %5, align 4, !tbaa !47
  %29 = xor i32 %28, -1
  %30 = add i32 %29, 1
  %31 = and i32 %30, 31
  %32 = shl i32 %27, %31
  %33 = or i32 %26, %32
  call void @llvm.lifetime.end.p0(i64 4, ptr %5) #18
  call void @llvm.lifetime.end.p0(i64 4, ptr %4) #18
  call void @llvm.lifetime.end.p0(i64 8, ptr %3) #18
  ret i32 %33
}

; Function Attrs: mustprogress uwtable
define linkonce_odr dso_local noundef float @_ZNK4pbrt17LanczosSincFilter8EvaluateENS_6Point2IfEE(ptr noundef nonnull align 8 dereferenceable(192) %0, <2 x float> %1) #6 comdat align 2 {
  %3 = alloca %"class.pbrt::Point2", align 4
  %4 = alloca ptr, align 8
  %5 = getelementptr inbounds nuw %"class.pbrt::Point2", ptr %3, i32 0, i32 0
  store <2 x float> %1, ptr %5, align 4
  store ptr %0, ptr %4, align 8, !tbaa !45
  %6 = load ptr, ptr %4, align 8
  %7 = getelementptr inbounds nuw %"class.pbrt::Tuple2.2", ptr %3, i32 0, i32 0
  %8 = load float, ptr %7, align 4, !tbaa !52
  %9 = getelementptr inbounds nuw %"class.pbrt::LanczosSincFilter", ptr %6, i32 0, i32 0
  %10 = getelementptr inbounds nuw %"class.pbrt::Tuple2", ptr %9, i32 0, i32 0
  %11 = load float, ptr %10, align 8, !tbaa !49
  %12 = getelementptr inbounds nuw %"class.pbrt::LanczosSincFilter", ptr %6, i32 0, i32 1
  %13 = load float, ptr %12, align 8, !tbaa !65
  %14 = call noundef float @_ZN4pbrt12WindowedSincEfff(float noundef %8, float noundef %11, float noundef %13)
  %15 = getelementptr inbounds nuw %"class.pbrt::Tuple2.2", ptr %3, i32 0, i32 1
  %16 = load float, ptr %15, align 4, !tbaa !54
  %17 = getelementptr inbounds nuw %"class.pbrt::LanczosSincFilter", ptr %6, i32 0, i32 0
  %18 = getelementptr inbounds nuw %"class.pbrt::Tuple2", ptr %17, i32 0, i32 1
  %19 = load float, ptr %18, align 4, !tbaa !51
  %20 = getelementptr inbounds nuw %"class.pbrt::LanczosSincFilter", ptr %6, i32 0, i32 1
  %21 = load float, ptr %20, align 8, !tbaa !65
  %22 = call noundef float @_ZN4pbrt12WindowedSincEfff(float noundef %16, float noundef %19, float noundef %21)
  %23 = fmul float %14, %22
  ret float %23
}

; Function Attrs: inlinehint mustprogress nounwind uwtable
define linkonce_odr dso_local noundef float @_ZN4pbrt4LerpEfff(float noundef %0, float noundef %1, float noundef %2) #7 comdat {
  %4 = alloca float, align 4
  %5 = alloca float, align 4
  %6 = alloca float, align 4
  store float %0, ptr %4, align 4, !tbaa !9
  store float %1, ptr %5, align 4, !tbaa !9
  store float %2, ptr %6, align 4, !tbaa !9
  %7 = load float, ptr %4, align 4, !tbaa !9
  %8 = fsub float 1.000000e+00, %7
  %9 = load float, ptr %5, align 4, !tbaa !9
  %10 = fmul float %8, %9
  %11 = load float, ptr %4, align 4, !tbaa !9
  %12 = load float, ptr %6, align 4, !tbaa !9
  %13 = fmul float %11, %12
  %14 = fadd float %10, %13
  ret float %14
}

; Function Attrs: mustprogress uwtable
define linkonce_odr dso_local void @_ZN4pbrt6Point2IfEC2Eff(ptr noundef nonnull align 4 dereferenceable(8) %0, float noundef %1, float noundef %2) unnamed_addr #1 comdat align 2 {
  %4 = alloca ptr, align 8
  %5 = alloca float, align 4
  %6 = alloca float, align 4
  store ptr %0, ptr %4, align 8, !tbaa !63
  store float %1, ptr %5, align 4, !tbaa !9
  store float %2, ptr %6, align 4, !tbaa !9
  %7 = load ptr, ptr %4, align 8
  %8 = load float, ptr %5, align 4, !tbaa !9
  %9 = load float, ptr %6, align 4, !tbaa !9
  call void @_ZN4pbrt6Tuple2INS_6Point2EfEC2Eff(ptr noundef nonnull align 4 dereferenceable(8) %7, float noundef %8, float noundef %9)
  ret void
}

; Function Attrs: inlinehint mustprogress uwtable
define linkonce_odr dso_local noundef float @_ZN4pbrt3RNG7UniformIfEET_v(ptr noundef nonnull align 8 dereferenceable(16) %0) #4 comdat align 2 {
  %2 = alloca ptr, align 8
  %3 = alloca float, align 4
  store ptr %0, ptr %2, align 8, !tbaa !58
  %4 = load ptr, ptr %2, align 8
  call void @llvm.lifetime.start.p0(i64 4, ptr %3) #18
  %5 = call noundef i32 @_ZN4pbrt3RNG7UniformIjEET_v(ptr noundef nonnull align 8 dereferenceable(16) %4)
  %6 = uitofp i32 %5 to float
  %7 = fmul float %6, 0x3DF0000000000000
  store float %7, ptr %3, align 4, !tbaa !9
  %8 = call noundef nonnull align 4 dereferenceable(4) ptr @_ZSt3minIfERKT_S2_S2_(ptr noundef nonnull align 4 dereferenceable(4) @_ZN4pbrtL15OneMinusEpsilonE, ptr noundef nonnull align 4 dereferenceable(4) %3)
  %9 = load float, ptr %8, align 4, !tbaa !9
  call void @llvm.lifetime.end.p0(i64 4, ptr %3) #18
  ret float %9
}

; Function Attrs: mustprogress nounwind uwtable
define linkonce_odr dso_local void @_ZN4pbrt3RNGC2Ev(ptr noundef nonnull align 8 dereferenceable(16) %0) unnamed_addr #3 comdat align 2 {
  %2 = alloca ptr, align 8
  store ptr %0, ptr %2, align 8, !tbaa !58
  %3 = load ptr, ptr %2, align 8
  %4 = getelementptr inbounds nuw %"class.pbrt::RNG", ptr %3, i32 0, i32 0
  store i64 -8846114313915602277, ptr %4, align 8, !tbaa !60
  %5 = getelementptr inbounds nuw %"class.pbrt::RNG", ptr %3, i32 0, i32 1
  store i64 -2720673578348880933, ptr %5, align 8, !tbaa !62
  ret void
}

; Function Attrs: mustprogress uwtable
define dso_local noundef float @_ZNK4pbrt17LanczosSincFilter8IntegralEv(ptr noundef nonnull align 8 dereferenceable(192) %0) #6 align 2 {
  %2 = alloca ptr, align 8
  %3 = alloca float, align 4
  %4 = alloca i32, align 4
  %5 = alloca i32, align 4
  %6 = alloca float, align 4
  %7 = alloca %"class.pbrt::RNG", align 8
  %8 = alloca i32, align 4
  %9 = alloca i32, align 4
  %10 = alloca i32, align 4
  %11 = alloca %"class.pbrt::Point2", align 4
  %12 = alloca %"class.pbrt::Point2", align 4
  %13 = alloca %"class.pbrt::Point2", align 4
  store ptr %0, ptr %2, align 8, !tbaa !45
  %14 = load ptr, ptr %2, align 8
  call void @llvm.lifetime.start.p0(i64 4, ptr %3) #18
  store float 0.000000e+00, ptr %3, align 4, !tbaa !9
  call void @llvm.lifetime.start.p0(i64 4, ptr %4) #18
  store i32 64, ptr %4, align 4, !tbaa !47
  call void @llvm.lifetime.start.p0(i64 4, ptr %5) #18
  %15 = load i32, ptr %4, align 4, !tbaa !47
  %16 = load i32, ptr %4, align 4, !tbaa !47
  %17 = mul nsw i32 %15, %16
  store i32 %17, ptr %5, align 4, !tbaa !47
  call void @llvm.lifetime.start.p0(i64 4, ptr %6) #18
  %18 = getelementptr inbounds nuw %"class.pbrt::LanczosSincFilter", ptr %14, i32 0, i32 0
  %19 = getelementptr inbounds nuw %"class.pbrt::Tuple2", ptr %18, i32 0, i32 0
  %20 = load float, ptr %19, align 8, !tbaa !49
  %21 = fmul float 2.000000e+00, %20
  %22 = fmul float %21, 2.000000e+00
  %23 = getelementptr inbounds nuw %"class.pbrt::LanczosSincFilter", ptr %14, i32 0, i32 0
  %24 = getelementptr inbounds nuw %"class.pbrt::Tuple2", ptr %23, i32 0, i32 1
  %25 = load float, ptr %24, align 4, !tbaa !51
  %26 = fmul float %22, %25
  store float %26, ptr %6, align 4, !tbaa !9
  call void @llvm.lifetime.start.p0(i64 16, ptr %7) #18
  call void @_ZN4pbrt3RNGC2Ev(ptr noundef nonnull align 8 dereferenceable(16) %7)
  call void @llvm.lifetime.start.p0(i64 4, ptr %8) #18
  store i32 0, ptr %8, align 4, !tbaa !47
  br label %27

27:                                               ; preds = %82, %1
  %28 = load i32, ptr %8, align 4, !tbaa !47
  %29 = load i32, ptr %4, align 4, !tbaa !47
  %30 = icmp slt i32 %28, %29
  br i1 %30, label %32, label %31

31:                                               ; preds = %27
  store i32 2, ptr %9, align 4
  call void @llvm.lifetime.end.p0(i64 4, ptr %8) #18
  br label %85

32:                                               ; preds = %27
  call void @llvm.lifetime.start.p0(i64 4, ptr %10) #18
  store i32 0, ptr %10, align 4, !tbaa !47
  br label %33

33:                                               ; preds = %78, %32
  %34 = load i32, ptr %10, align 4, !tbaa !47
  %35 = load i32, ptr %4, align 4, !tbaa !47
  %36 = icmp slt i32 %34, %35
  br i1 %36, label %38, label %37

37:                                               ; preds = %33
  store i32 5, ptr %9, align 4
  call void @llvm.lifetime.end.p0(i64 4, ptr %10) #18
  br label %81

38:                                               ; preds = %33
  call void @llvm.lifetime.start.p0(i64 8, ptr %11) #18
  %39 = load i32, ptr %10, align 4, !tbaa !47
  %40 = sitofp i32 %39 to float
  %41 = call noundef float @_ZN4pbrt3RNG7UniformIfEET_v(ptr noundef nonnull align 8 dereferenceable(16) %7)
  %42 = fadd float %40, %41
  %43 = load i32, ptr %4, align 4, !tbaa !47
  %44 = sitofp i32 %43 to float
  %45 = fdiv float %42, %44
  %46 = load i32, ptr %8, align 4, !tbaa !47
  %47 = sitofp i32 %46 to float
  %48 = call noundef float @_ZN4pbrt3RNG7UniformIfEET_v(ptr noundef nonnull align 8 dereferenceable(16) %7)
  %49 = fadd float %47, %48
  %50 = load i32, ptr %4, align 4, !tbaa !47
  %51 = sitofp i32 %50 to float
  %52 = fdiv float %49, %51
  call void @_ZN4pbrt6Point2IfEC2Eff(ptr noundef nonnull align 4 dereferenceable(8) %11, float noundef %45, float noundef %52)
  call void @llvm.lifetime.start.p0(i64 8, ptr %12) #18
  %53 = getelementptr inbounds nuw %"class.pbrt::Tuple2.2", ptr %11, i32 0, i32 0
  %54 = load float, ptr %53, align 4, !tbaa !52
  %55 = getelementptr inbounds nuw %"class.pbrt::LanczosSincFilter", ptr %14, i32 0, i32 0
  %56 = getelementptr inbounds nuw %"class.pbrt::Tuple2", ptr %55, i32 0, i32 0
  %57 = load float, ptr %56, align 8, !tbaa !49
  %58 = fneg float %57
  %59 = getelementptr inbounds nuw %"class.pbrt::LanczosSincFilter", ptr %14, i32 0, i32 0
  %60 = getelementptr inbounds nuw %"class.pbrt::Tuple2", ptr %59, i32 0, i32 0
  %61 = load float, ptr %60, align 8, !tbaa !49
  %62 = call noundef float @_ZN4pbrt4LerpEfff(float noundef %54, float noundef %58, float noundef %61)
  %63 = getelementptr inbounds nuw %"class.pbrt::Tuple2.2", ptr %11, i32 0, i32 1
  %64 = load float, ptr %63, align 4, !tbaa !54
  %65 = getelementptr inbounds nuw %"class.pbrt::LanczosSincFilter", ptr %14, i32 0, i32 0
  %66 = getelementptr inbounds nuw %"class.pbrt::Tuple2", ptr %65, i32 0, i32 1
  %67 = load float, ptr %66, align 4, !tbaa !51
  %68 = fneg float %67
  %69 = getelementptr inbounds nuw %"class.pbrt::LanczosSincFilter", ptr %14, i32 0, i32 0
  %70 = getelementptr inbounds nuw %"class.pbrt::Tuple2", ptr %69, i32 0, i32 1
  %71 = load float, ptr %70, align 4, !tbaa !51
  %72 = call noundef float @_ZN4pbrt4LerpEfff(float noundef %64, float noundef %68, float noundef %71)
  call void @_ZN4pbrt6Point2IfEC2Eff(ptr noundef nonnull align 4 dereferenceable(8) %12, float noundef %62, float noundef %72)
  call void @llvm.memcpy.p0.p0.i64(ptr align 4 %13, ptr align 4 %12, i64 8, i1 false)
  %73 = getelementptr inbounds nuw %"class.pbrt::Point2", ptr %13, i32 0, i32 0
  %74 = load <2 x float>, ptr %73, align 4
  %75 = call noundef float @_ZNK4pbrt17LanczosSincFilter8EvaluateENS_6Point2IfEE(ptr noundef nonnull align 8 dereferenceable(192) %14, <2 x float> %74)
  %76 = load float, ptr %3, align 4, !tbaa !9
  %77 = fadd float %76, %75
  store float %77, ptr %3, align 4, !tbaa !9
  call void @llvm.lifetime.end.p0(i64 8, ptr %12) #18
  call void @llvm.lifetime.end.p0(i64 8, ptr %11) #18
  br label %78

78:                                               ; preds = %38
  %79 = load i32, ptr %10, align 4, !tbaa !47
  %80 = add nsw i32 %79, 1
  store i32 %80, ptr %10, align 4, !tbaa !47
  br label %33, !llvm.loop !55

81:                                               ; preds = %37
  br label %82

82:                                               ; preds = %81
  %83 = load i32, ptr %8, align 4, !tbaa !47
  %84 = add nsw i32 %83, 1
  store i32 %84, ptr %8, align 4, !tbaa !47
  br label %27, !llvm.loop !57

85:                                               ; preds = %31
  %86 = load float, ptr %3, align 4, !tbaa !9
  %87 = load i32, ptr %5, align 4, !tbaa !47
  %88 = sitofp i32 %87 to float
  %89 = fdiv float %86, %88
  %90 = load float, ptr %6, align 4, !tbaa !9
  %91 = fmul float %89, %90
  store i32 1, ptr %9, align 4
  call void @llvm.lifetime.end.p0(i64 16, ptr %7) #18
  call void @llvm.lifetime.end.p0(i64 4, ptr %6) #18
  call void @llvm.lifetime.end.p0(i64 4, ptr %5) #18
  call void @llvm.lifetime.end.p0(i64 4, ptr %4) #18
  call void @llvm.lifetime.end.p0(i64 4, ptr %3) #18
  ret float %91
}