; Function Attrs: mustprogress nofree nounwind memory(write, argmem: readwrite) uwtable
define dso_local noundef float @_ZNK4pbrt17LanczosSincFilter8IntegralEv(ptr noundef nonnull readonly align 8 captures(none) dereferenceable(192) %0) local_unnamed_addr #4 align 2 {
  %2 = load float, ptr %0, align 8, !tbaa !92
  %3 = getelementptr inbounds nuw i8, ptr %0, i64 4
  %4 = load float, ptr %3, align 4, !tbaa !93
  %5 = getelementptr inbounds nuw i8, ptr %0, i64 8
  %6 = load float, ptr %5, align 8, !tbaa !94
  br label %.preheader

.preheader:                                       ; preds = %1, %14
  %.029 = phi float [ 0.000000e+00, %1 ], [ %93, %14 ]
  %.01728 = phi i32 [ 0, %1 ], [ %15, %14 ]
  %.sroa.021.027 = phi i64 [ -8846114313915602277, %1 ], [ %33, %14 ]
  %7 = uitofp nneg i32 %.01728 to float
  br label %16

8:                                                ; preds = %14
  %9 = fmul float %2, 2.000000e+00
  %10 = fmul float %9, 2.000000e+00
  %11 = fmul float %4, %10
  %12 = fmul float %93, 0x3F30000000000000
  %13 = fmul float %11, %12
  ret float %13

14:                                               ; preds = %_ZNK4pbrt17LanczosSincFilter8EvaluateENS_6Point2IfEE.exit
  %15 = add nuw nsw i32 %.01728, 1
  %exitcond31.not = icmp eq i32 %15, 64
  br i1 %exitcond31.not, label %8, label %.preheader, !llvm.loop !96

16:                                               ; preds = %.preheader, %_ZNK4pbrt17LanczosSincFilter8EvaluateENS_6Point2IfEE.exit
  %.126 = phi float [ %.029, %.preheader ], [ %93, %_ZNK4pbrt17LanczosSincFilter8EvaluateENS_6Point2IfEE.exit ]
  %.01625 = phi i32 [ 0, %.preheader ], [ %94, %_ZNK4pbrt17LanczosSincFilter8EvaluateENS_6Point2IfEE.exit ]
  %.sroa.021.124 = phi i64 [ %.sroa.021.027, %.preheader ], [ %33, %_ZNK4pbrt17LanczosSincFilter8EvaluateENS_6Point2IfEE.exit ]
  %17 = uitofp nneg i32 %.01625 to float
  %18 = mul i64 %.sroa.021.124, 6364136223846793005
  %19 = add i64 %18, -2720673578348880933
  %20 = lshr i64 %.sroa.021.124, 45
  %21 = lshr i64 %.sroa.021.124, 27
  %22 = xor i64 %20, %21
  %23 = trunc i64 %22 to i32
  %24 = lshr i64 %.sroa.021.124, 59
  %25 = trunc nuw nsw i64 %24 to i32
  %26 = tail call noundef i32 @llvm.fshr.i32(i32 %23, i32 %23, i32 %25)
  %27 = uitofp i32 %26 to float
  %28 = fmul float %27, 0x3DF0000000000000
  %29 = fcmp olt float %28, 0x3FEFFFFFE0000000
  %.sroa.speculated.i = select i1 %29, float %28, float 0x3FEFFFFFE0000000
  %30 = fadd float %.sroa.speculated.i, %17
  %31 = fmul float %30, 1.562500e-02
  %32 = mul i64 %19, 6364136223846793005
  %33 = add i64 %32, -2720673578348880933
  %34 = lshr i64 %19, 45
  %35 = lshr i64 %19, 27
  %36 = xor i64 %34, %35
  %37 = trunc i64 %36 to i32
  %38 = lshr i64 %19, 59
  %39 = trunc nuw nsw i64 %38 to i32
  %40 = tail call noundef i32 @llvm.fshr.i32(i32 %37, i32 %37, i32 %39)
  %41 = uitofp i32 %40 to float
  %42 = fmul float %41, 0x3DF0000000000000
  %43 = fcmp olt float %42, 0x3FEFFFFFE0000000
  %.sroa.speculated.i18 = select i1 %43, float %42, float 0x3FEFFFFFE0000000
  %44 = fadd float %.sroa.speculated.i18, %7
  %45 = fmul float %44, 1.562500e-02
  %46 = fsub float 1.000000e+00, %31
  %47 = fmul float %2, %31
  %48 = fmul float %2, %46
  %49 = fsub float %47, %48
  %50 = fsub float 1.000000e+00, %45
  %51 = fmul float %4, %45
  %52 = fmul float %4, %50
  %53 = fsub float %51, %52
  %54 = tail call noundef float @llvm.fabs.f32(float %49)
  %55 = fcmp ogt float %54, %2
  br i1 %55, label %_ZN4pbrt12WindowedSincEfff.exit.i, label %56

56:                                               ; preds = %16
  %57 = fmul float %49, 0x400921FB60000000
  %58 = fmul float %57, %57
  %59 = fsub float 1.000000e+00, %58
  %60 = fcmp oeq float %59, 1.000000e+00
  br i1 %60, label %_ZN4pbrt4SincEf.exit.i.i, label %61

61:                                               ; preds = %56
  %62 = tail call noundef float @sinf(float noundef %57) #24, !tbaa !98
  %63 = fdiv float %62, %57
  br label %_ZN4pbrt4SincEf.exit.i.i

_ZN4pbrt4SincEf.exit.i.i:                         ; preds = %61, %56
  %.0.i.i.i.i = phi float [ %63, %61 ], [ 1.000000e+00, %56 ]
  %64 = fdiv float %49, %6
  %65 = fmul float %64, 0x400921FB60000000
  %66 = fmul float %65, %65
  %67 = fsub float 1.000000e+00, %66
  %68 = fcmp oeq float %67, 1.000000e+00
  br i1 %68, label %_ZN4pbrt4SincEf.exit7.i.i, label %69

69:                                               ; preds = %_ZN4pbrt4SincEf.exit.i.i
  %70 = tail call noundef float @sinf(float noundef %65) #24, !tbaa !98
  %71 = fdiv float %70, %65
  br label %_ZN4pbrt4SincEf.exit7.i.i

_ZN4pbrt4SincEf.exit7.i.i:                        ; preds = %69, %_ZN4pbrt4SincEf.exit.i.i
  %.0.i.i6.i.i = phi float [ %71, %69 ], [ 1.000000e+00, %_ZN4pbrt4SincEf.exit.i.i ]
  %72 = fmul float %.0.i.i.i.i, %.0.i.i6.i.i
  br label %_ZN4pbrt12WindowedSincEfff.exit.i

_ZN4pbrt12WindowedSincEfff.exit.i:                ; preds = %_ZN4pbrt4SincEf.exit7.i.i, %16
  %.0.i.i = phi float [ %72, %_ZN4pbrt4SincEf.exit7.i.i ], [ 0.000000e+00, %16 ]
  %73 = tail call noundef float @llvm.fabs.f32(float %53)
  %74 = fcmp ogt float %73, %4
  br i1 %74, label %_ZNK4pbrt17LanczosSincFilter8EvaluateENS_6Point2IfEE.exit, label %75

75:                                               ; preds = %_ZN4pbrt12WindowedSincEfff.exit.i
  %76 = fmul float %53, 0x400921FB60000000
  %77 = fmul float %76, %76
  %78 = fsub float 1.000000e+00, %77
  %79 = fcmp oeq float %78, 1.000000e+00
  br i1 %79, label %_ZN4pbrt4SincEf.exit.i1.i, label %80

80:                                               ; preds = %75
  %81 = tail call noundef float @sinf(float noundef %76) #24, !tbaa !98
  %82 = fdiv float %81, %76
  br label %_ZN4pbrt4SincEf.exit.i1.i

_ZN4pbrt4SincEf.exit.i1.i:                        ; preds = %80, %75
  %.0.i.i.i2.i = phi float [ %82, %80 ], [ 1.000000e+00, %75 ]
  %83 = fdiv float %53, %6
  %84 = fmul float %83, 0x400921FB60000000
  %85 = fmul float %84, %84
  %86 = fsub float 1.000000e+00, %85
  %87 = fcmp oeq float %86, 1.000000e+00
  br i1 %87, label %_ZN4pbrt4SincEf.exit7.i3.i, label %88

88:                                               ; preds = %_ZN4pbrt4SincEf.exit.i1.i
  %89 = tail call noundef float @sinf(float noundef %84) #24, !tbaa !98
  %90 = fdiv float %89, %84
  br label %_ZN4pbrt4SincEf.exit7.i3.i

_ZN4pbrt4SincEf.exit7.i3.i:                       ; preds = %88, %_ZN4pbrt4SincEf.exit.i1.i
  %.0.i.i6.i4.i = phi float [ %90, %88 ], [ 1.000000e+00, %_ZN4pbrt4SincEf.exit.i1.i ]
  %91 = fmul float %.0.i.i.i2.i, %.0.i.i6.i4.i
  br label %_ZNK4pbrt17LanczosSincFilter8EvaluateENS_6Point2IfEE.exit

_ZNK4pbrt17LanczosSincFilter8EvaluateENS_6Point2IfEE.exit: ; preds = %_ZN4pbrt12WindowedSincEfff.exit.i, %_ZN4pbrt4SincEf.exit7.i3.i
  %.0.i5.i = phi float [ %91, %_ZN4pbrt4SincEf.exit7.i3.i ], [ 0.000000e+00, %_ZN4pbrt12WindowedSincEfff.exit.i ]
  %92 = fmul float %.0.i.i, %.0.i5.i
  %93 = fadd float %.126, %92
  %94 = add nuw nsw i32 %.01625, 1
  %exitcond.not = icmp eq i32 %94, 64
  br i1 %exitcond.not, label %14, label %16, !llvm.loop !99
}